target datalayout = "e-m:e-p270:32:32-p271:32:32-p272:64:64-i64:64-i128:128-f80:128-n8:16:32:64-S128"
target triple = "x86_64-pc-linux-gnu"

%struct.ThreadData = type { ptr, ptr, ptr, i32, i32, float }

; Function Attrs: nounwind uwtable
define internal i32 @filter_noinverse_fltp_noclip(ptr noundef %0, ptr noundef %1, i32 noundef %2, i32 noundef %3) #2 {
  %5 = alloca ptr, align 8
  %6 = alloca ptr, align 8
  %7 = alloca i32, align 4
  %8 = alloca i32, align 4
  %9 = alloca ptr, align 8
  %10 = alloca ptr, align 8
  %11 = alloca ptr, align 8
  %12 = alloca ptr, align 8
  %13 = alloca i32, align 4
  %14 = alloca i32, align 4
  %15 = alloca float, align 4
  %16 = alloca float, align 4
  %17 = alloca i32, align 4
  %18 = alloca i32, align 4
  %19 = alloca i32, align 4
  %20 = alloca i32, align 4
  %21 = alloca ptr, align 8
  %22 = alloca ptr, align 8
  %23 = alloca ptr, align 8
  %24 = alloca i32, align 4
  %25 = alloca float, align 4
  store ptr %0, ptr %5, align 8, !tbaa !4
  store ptr %1, ptr %6, align 8, !tbaa !58
  store i32 %2, ptr %7, align 4, !tbaa !61
  store i32 %3, ptr %8, align 4, !tbaa !61
  call void @llvm.lifetime.start.p0(i64 8, ptr %9) #7
  %26 = load ptr, ptr %6, align 8, !tbaa !58
  store ptr %26, ptr %9, align 8, !tbaa !62
  call void @llvm.lifetime.start.p0(i64 8, ptr %10) #7
  %27 = load ptr, ptr %9, align 8, !tbaa !62
  %28 = getelementptr inbounds nuw %struct.ThreadData, ptr %27, i32 0, i32 0
  %29 = load ptr, ptr %28, align 8, !tbaa !47
  store ptr %29, ptr %10, align 8, !tbaa !64
  call void @llvm.lifetime.start.p0(i64 8, ptr %11) #7
  %30 = load ptr, ptr %9, align 8, !tbaa !62
  %31 = getelementptr inbounds nuw %struct.ThreadData, ptr %30, i32 0, i32 1
  %32 = load ptr, ptr %31, align 8, !tbaa !50
  store ptr %32, ptr %11, align 8, !tbaa !64
  call void @llvm.lifetime.start.p0(i64 8, ptr %12) #7
  %33 = load ptr, ptr %9, align 8, !tbaa !62
  %34 = getelementptr inbounds nuw %struct.ThreadData, ptr %33, i32 0, i32 2
  %35 = load ptr, ptr %34, align 8, !tbaa !49
  store ptr %35, ptr %12, align 8, !tbaa !64
  call void @llvm.lifetime.start.p0(i64 4, ptr %13) #7
  %36 = load ptr, ptr %9, align 8, !tbaa !62
  %37 = getelementptr inbounds nuw %struct.ThreadData, ptr %36, i32 0, i32 3
  %38 = load i32, ptr %37, align 8, !tbaa !51
  store i32 %38, ptr %13, align 4, !tbaa !61
  call void @llvm.lifetime.start.p0(i64 4, ptr %14) #7
  %39 = load ptr, ptr %9, align 8, !tbaa !62
  %40 = getelementptr inbounds nuw %struct.ThreadData, ptr %39, i32 0, i32 4
  %41 = load i32, ptr %40, align 4, !tbaa !53
  store i32 %41, ptr %14, align 4, !tbaa !61
  call void @llvm.lifetime.start.p0(i64 4, ptr %15) #7
  %42 = load ptr, ptr %9, align 8, !tbaa !62
  %43 = getelementptr inbounds nuw %struct.ThreadData, ptr %42, i32 0, i32 5
  %44 = load float, ptr %43, align 8, !tbaa !56
  store float %44, ptr %15, align 4, !tbaa !65
  call void @llvm.lifetime.start.p0(i64 4, ptr %16) #7
  %45 = load float, ptr %15, align 4, !tbaa !65
  %46 = fneg nsz float %45
  %47 = fadd nsz float %46, 1.000000e+00
  %48 = fdiv nsz float 1.000000e+00, %47
  store float %48, ptr %16, align 4, !tbaa !65
  call void @llvm.lifetime.start.p0(i64 4, ptr %17) #7
  %49 = load i32, ptr %14, align 4, !tbaa !61
  %50 = load i32, ptr %7, align 4, !tbaa !61
  %51 = mul nsw i32 %49, %50
  %52 = load i32, ptr %8, align 4, !tbaa !61
  %53 = sdiv i32 %51, %52
  store i32 %53, ptr %17, align 4, !tbaa !61
  call void @llvm.lifetime.start.p0(i64 4, ptr %18) #7
  %54 = load i32, ptr %14, align 4, !tbaa !61
  %55 = load i32, ptr %7, align 4, !tbaa !61
  %56 = add nsw i32 %55, 1
  %57 = mul nsw i32 %54, %56
  %58 = load i32, ptr %8, align 4, !tbaa !61
  %59 = sdiv i32 %57, %58
  store i32 %59, ptr %18, align 4, !tbaa !61
  call void @llvm.lifetime.start.p0(i64 4, ptr %19) #7
  %60 = load i32, ptr %17, align 4, !tbaa !61
  store i32 %60, ptr %19, align 4, !tbaa !61
  br label %61

61:                                               ; preds = %112, %4
  %62 = load i32, ptr %19, align 4, !tbaa !61
  %63 = load i32, ptr %18, align 4, !tbaa !61
  %64 = icmp slt i32 %62, %63
  br i1 %64, label %66, label %65

65:                                               ; preds = %61
  store i32 2, ptr %20, align 4
  call void @llvm.lifetime.end.p0(i64 4, ptr %19) #7
  br label %115

66:                                               ; preds = %61
  call void @llvm.lifetime.start.p0(i64 8, ptr %21) #7
  %67 = load ptr, ptr %12, align 8, !tbaa !64
  %68 = load i32, ptr %19, align 4, !tbaa !61
  %69 = sext i32 %68 to i64
  %70 = getelementptr inbounds ptr, ptr %67, i64 %69
  %71 = load ptr, ptr %70, align 8, !tbaa !58
  store ptr %71, ptr %21, align 8, !tbaa !66
  call void @llvm.lifetime.start.p0(i64 8, ptr %22) #7
  %72 = load ptr, ptr %10, align 8, !tbaa !64
  %73 = load i32, ptr %19, align 4, !tbaa !61
  %74 = sext i32 %73 to i64
  %75 = getelementptr inbounds ptr, ptr %72, i64 %74
  %76 = load ptr, ptr %75, align 8, !tbaa !58
  store ptr %76, ptr %22, align 8, !tbaa !66
  call void @llvm.lifetime.start.p0(i64 8, ptr %23) #7
  %77 = load ptr, ptr %11, align 8, !tbaa !64
  %78 = load i32, ptr %19, align 4, !tbaa !61
  %79 = sext i32 %78 to i64
  %80 = getelementptr inbounds ptr, ptr %77, i64 %79
  %81 = load ptr, ptr %80, align 8, !tbaa !58
  store ptr %81, ptr %23, align 8, !tbaa !66
  call void @llvm.lifetime.start.p0(i64 4, ptr %24) #7
  store i32 0, ptr %24, align 4, !tbaa !61
  br label %82

82:                                               ; preds = %108, %66
  %83 = load i32, ptr %24, align 4, !tbaa !61
  %84 = load i32, ptr %13, align 4, !tbaa !61
  %85 = icmp slt i32 %83, %84
  br i1 %85, label %87, label %86

86:                                               ; preds = %82
  store i32 5, ptr %20, align 4
  call void @llvm.lifetime.end.p0(i64 4, ptr %24) #7
  br label %111

87:                                               ; preds = %82
  call void @llvm.lifetime.start.p0(i64 4, ptr %25) #7
  %88 = load ptr, ptr %21, align 8, !tbaa !66
  %89 = load i32, ptr %24, align 4, !tbaa !61
  %90 = sext i32 %89 to i64
  %91 = getelementptr inbounds float, ptr %88, i64 %90
  %92 = load float, ptr %91, align 4, !tbaa !65
  store float %92, ptr %25, align 4, !tbaa !65
  %93 = load float, ptr %25, align 4, !tbaa !65
  %94 = load float, ptr %25, align 4, !tbaa !65
  %95 = load ptr, ptr %23, align 8, !tbaa !66
  %96 = getelementptr inbounds float, ptr %95, i64 0
  %97 = load float, ptr %96, align 4, !tbaa !65
  %98 = fsub nsz float %94, %97
  %99 = load float, ptr %15, align 4, !tbaa !65
  %100 = call nsz float @llvm.fmuladd.f32(float %98, float %99, float %93)
  %101 = load ptr, ptr %22, align 8, !tbaa !66
  %102 = load i32, ptr %24, align 4, !tbaa !61
  %103 = sext i32 %102 to i64
  %104 = getelementptr inbounds float, ptr %101, i64 %103
  store float %100, ptr %104, align 4, !tbaa !65
  %105 = load float, ptr %25, align 4, !tbaa !65
  %106 = load ptr, ptr %23, align 8, !tbaa !66
  %107 = getelementptr inbounds float, ptr %106, i64 0
  store float %105, ptr %107, align 4, !tbaa !65
  call void @llvm.lifetime.end.p0(i64 4, ptr %25) #7
  br label %108

108:                                              ; preds = %87
  %109 = load i32, ptr %24, align 4, !tbaa !61
  %110 = add nsw i32 %109, 1
  store i32 %110, ptr %24, align 4, !tbaa !61
  br label %82, !llvm.loop !79

111:                                              ; preds = %86
  call void @llvm.lifetime.end.p0(i64 8, ptr %23) #7
  call void @llvm.lifetime.end.p0(i64 8, ptr %22) #7
  call void @llvm.lifetime.end.p0(i64 8, ptr %21) #7
  br label %112

112:                                              ; preds = %111
  %113 = load i32, ptr %19, align 4, !tbaa !61
  %114 = add nsw i32 %113, 1
  store i32 %114, ptr %19, align 4, !tbaa !61
  br label %61, !llvm.loop !80

115:                                              ; preds = %65
  store i32 1, ptr %20, align 4
  call void @llvm.lifetime.end.p0(i64 4, ptr %18) #7
  call void @llvm.lifetime.end.p0(i64 4, ptr %17) #7
  call void @llvm.lifetime.end.p0(i64 4, ptr %16) #7
  call void @llvm.lifetime.end.p0(i64 4, ptr %15) #7
  call void @llvm.lifetime.end.p0(i64 4, ptr %14) #7
  call void @llvm.lifetime.end.p0(i64 4, ptr %13) #7
  call void @llvm.lifetime.end.p0(i64 8, ptr %12) #7
  call void @llvm.lifetime.end.p0(i64 8, ptr %11) #7
  call void @llvm.lifetime.end.p0(i64 8, ptr %10) #7
  call void @llvm.lifetime.end.p0(i64 8, ptr %9) #7
  ret i32 0
}