; Function Attrs: nofree norecurse nosync nounwind memory(readwrite, inaccessiblemem: none) uwtable
define internal noundef i32 @filter_noinverse_fltp_noclip(ptr readnone captures(none) %0, ptr noundef readonly captures(none) %1, i32 noundef %2, i32 noundef %3) #6 {
  %5 = load ptr, ptr %1, align 8, !tbaa !44
  %6 = getelementptr inbounds nuw i8, ptr %1, i64 8
  %7 = load ptr, ptr %6, align 8, !tbaa !47
  %8 = getelementptr inbounds nuw i8, ptr %1, i64 16
  %9 = load ptr, ptr %8, align 8, !tbaa !46
  %10 = getelementptr inbounds nuw i8, ptr %1, i64 24
  %11 = load i32, ptr %10, align 8, !tbaa !48
  %12 = getelementptr inbounds nuw i8, ptr %1, i64 28
  %13 = load i32, ptr %12, align 4, !tbaa !50
  %14 = getelementptr inbounds nuw i8, ptr %1, i64 32
  %15 = load float, ptr %14, align 8, !tbaa !53
  %16 = mul nsw i32 %13, %2
  %17 = sdiv i32 %16, %3
  %18 = add nsw i32 %2, 1
  %19 = mul nsw i32 %13, %18
  %20 = sdiv i32 %19, %3
  %21 = icmp slt i32 %17, %20
  %22 = icmp sgt i32 %11, 0
  %or.cond = select i1 %21, i1 %22, i1 false
  br i1 %or.cond, label %.lr.ph.us.preheader, label %._crit_edge41

.lr.ph.us.preheader:                              ; preds = %4
  %23 = sext i32 %17 to i64
  %wide.trip.count47 = sext i32 %20 to i64
  %wide.trip.count = zext nneg i32 %11 to i64
  br label %.lr.ph.us

.lr.ph.us:                                        ; preds = %.lr.ph.us.preheader, %._crit_edge.us
  %indvars.iv44 = phi i64 [ %23, %.lr.ph.us.preheader ], [ %indvars.iv.next45, %._crit_edge.us ]
  %24 = getelementptr inbounds ptr, ptr %9, i64 %indvars.iv44
  %25 = load ptr, ptr %24, align 8, !tbaa !55
  %26 = getelementptr inbounds ptr, ptr %5, i64 %indvars.iv44
  %27 = load ptr, ptr %26, align 8, !tbaa !55
  %28 = getelementptr inbounds ptr, ptr %7, i64 %indvars.iv44
  %29 = load ptr, ptr %28, align 8, !tbaa !55
  %.pre = load float, ptr %29, align 4, !tbaa !58
  br label %30

30:                                               ; preds = %.lr.ph.us, %30
  %31 = phi float [ %.pre, %.lr.ph.us ], [ %33, %30 ]
  %indvars.iv = phi i64 [ 0, %.lr.ph.us ], [ %indvars.iv.next, %30 ]
  %32 = getelementptr inbounds nuw float, ptr %25, i64 %indvars.iv
  %33 = load float, ptr %32, align 4, !tbaa !58
  %34 = fsub nsz float %33, %31
  %35 = tail call nsz float @llvm.fmuladd.f32(float %34, float %15, float %33)
  %36 = getelementptr inbounds nuw float, ptr %27, i64 %indvars.iv
  store float %35, ptr %36, align 4, !tbaa !58
  store float %33, ptr %29, align 4, !tbaa !58
  %indvars.iv.next = add nuw nsw i64 %indvars.iv, 1
  %exitcond.not = icmp eq i64 %indvars.iv.next, %wide.trip.count
  br i1 %exitcond.not, label %._crit_edge.us, label %30, !llvm.loop !70

._crit_edge.us:                                   ; preds = %30
  %indvars.iv.next45 = add nsw i64 %indvars.iv44, 1
  %exitcond48.not = icmp eq i64 %indvars.iv.next45, %wide.trip.count47
  br i1 %exitcond48.not, label %._crit_edge41, label %.lr.ph.us, !llvm.loop !71

._crit_edge41:                                    ; preds = %._crit_edge.us, %4
  ret i32 0
}